target datalayout = "e-m:e-p270:32:32-p271:32:32-p272:64:64-i64:64-i128:128-f80:128-n8:16:32:64-S128"
target triple = "x86_64-pc-linux-gnu"

%"class.boost::filesystem::path" = type { %"class.std::__cxx11::basic_string" }
%"class.std::__cxx11::basic_string" = type { %"struct.std::__cxx11::basic_string<char>::_Alloc_hider", i64, %union.anon }
%"struct.std::__cxx11::basic_string<char>::_Alloc_hider" = type { ptr }
%union.anon = type { i64, [8 x i8] }
%struct.statx = type { i32, i32, i64, i32, i32, i32, i16, [1 x i16], i64, i64, i64, i64, %struct.statx_timestamp, %struct.statx_timestamp, %struct.statx_timestamp, %struct.statx_timestamp, i32, i32, i32, i32, i64, i64, [12 x i64] }
%struct.statx_timestamp = type { i64, i32, i32 }
%"class.boost::system::error_code" = type { %union.anon.1, i64 }
%union.anon.1 = type { %"struct.boost::system::error_code::data" }
%"struct.boost::system::error_code::data" = type { i32, ptr }

@.str.12 = private unnamed_addr constant [30 x i8] c"boost::filesystem::equivalent\00", align 1

; Function Attrs: noinline noreturn nounwind uwtable
define linkonce_odr hidden void @__clang_call_terminate(ptr noundef %0) #3 comdat {
  %2 = call ptr @__cxa_begin_catch(ptr %0) #14
  call void @_ZSt9terminatev() #20
  unreachable
}

; Function Attrs: mustprogress nounwind uwtable
define available_externally noundef ptr @_ZNKSt7__cxx1112basic_stringIcSt11char_traitsIcESaIcEE7_M_dataEv(ptr noundef nonnull align 8 dereferenceable(32) %0) #2 align 2 {
  %2 = alloca ptr, align 8
  store ptr %0, ptr %2, align 8, !tbaa !3
  %3 = load ptr, ptr %2, align 8
  %4 = getelementptr inbounds nuw %"class.std::__cxx11::basic_string", ptr %3, i32 0, i32 0
  %5 = getelementptr inbounds nuw %"struct.std::__cxx11::basic_string<char>::_Alloc_hider", ptr %4, i32 0, i32 0
  %6 = load ptr, ptr %5, align 8, !tbaa !90
  ret ptr %6
}

; Function Attrs: mustprogress nounwind uwtable
define available_externally noundef ptr @_ZNKSt7__cxx1112basic_stringIcSt11char_traitsIcESaIcEE5c_strEv(ptr noundef nonnull align 8 dereferenceable(32) %0) #2 align 2 personality ptr @__gxx_personality_v0 {
  %2 = alloca ptr, align 8
  store ptr %0, ptr %2, align 8, !tbaa !3
  %3 = load ptr, ptr %2, align 8
  %4 = invoke noundef ptr @_ZNKSt7__cxx1112basic_stringIcSt11char_traitsIcESaIcEE7_M_dataEv(ptr noundef nonnull align 8 dereferenceable(32) %3)
          to label %5 unwind label %6

5:                                                ; preds = %1
  ret ptr %4

6:                                                ; preds = %1
  %7 = landingpad { ptr, i32 }
          catch ptr null
  %8 = extractvalue { ptr, i32 } %7, 0
  call void @__clang_call_terminate(ptr %8) #20
  unreachable
}

; Function Attrs: mustprogress nounwind uwtable
define linkonce_odr hidden void @_ZN5boost6system10error_codeC2Ev(ptr noundef nonnull align 8 dereferenceable(24) %0) unnamed_addr #2 comdat align 2 {
  %2 = alloca ptr, align 8
  store ptr %0, ptr %2, align 8, !tbaa !3
  %3 = load ptr, ptr %2, align 8
  %4 = getelementptr inbounds nuw %"class.boost::system::error_code", ptr %3, i32 0, i32 0
  call void @llvm.memset.p0.i64(ptr align 8 %4, i8 0, i64 16, i1 false)
  %5 = getelementptr inbounds nuw %"class.boost::system::error_code", ptr %3, i32 0, i32 1
  store i64 0, ptr %5, align 8, !tbaa !32
  ret void
}

; Function Attrs: inlinehint mustprogress nounwind uwtable
define internal noundef zeroext i1 @_ZN5boost10filesystem6detail12_GLOBAL__N_115equivalent_statERK5statxS5_(ptr noundef nonnull align 8 dereferenceable(256) %0, ptr noundef nonnull align 8 dereferenceable(256) %1) #1 {
  %3 = alloca ptr, align 8
  %4 = alloca ptr, align 8
  store ptr %0, ptr %3, align 8, !tbaa !3
  store ptr %1, ptr %4, align 8, !tbaa !3
  %5 = load ptr, ptr %3, align 8, !tbaa !3
  %6 = getelementptr inbounds nuw %struct.statx, ptr %5, i32 0, i32 18
  %7 = load i32, ptr %6, align 8, !tbaa !54
  %8 = load ptr, ptr %4, align 8, !tbaa !3
  %9 = getelementptr inbounds nuw %struct.statx, ptr %8, i32 0, i32 18
  %10 = load i32, ptr %9, align 8, !tbaa !54
  %11 = icmp eq i32 %7, %10
  br i1 %11, label %12, label %28

12:                                               ; preds = %2
  %13 = load ptr, ptr %3, align 8, !tbaa !3
  %14 = getelementptr inbounds nuw %struct.statx, ptr %13, i32 0, i32 19
  %15 = load i32, ptr %14, align 4, !tbaa !55
  %16 = load ptr, ptr %4, align 8, !tbaa !3
  %17 = getelementptr inbounds nuw %struct.statx, ptr %16, i32 0, i32 19
  %18 = load i32, ptr %17, align 4, !tbaa !55
  %19 = icmp eq i32 %15, %18
  br i1 %19, label %20, label %28

20:                                               ; preds = %12
  %21 = load ptr, ptr %3, align 8, !tbaa !3
  %22 = getelementptr inbounds nuw %struct.statx, ptr %21, i32 0, i32 8
  %23 = load i64, ptr %22, align 8, !tbaa !56
  %24 = load ptr, ptr %4, align 8, !tbaa !3
  %25 = getelementptr inbounds nuw %struct.statx, ptr %24, i32 0, i32 8
  %26 = load i64, ptr %25, align 8, !tbaa !56
  %27 = icmp eq i64 %23, %26
  br label %28

28:                                               ; preds = %20, %12, %2
  %29 = phi i1 [ false, %12 ], [ false, %2 ], [ %27, %20 ]
  ret i1 %29
}

; Function Attrs: alwaysinline mustprogress nounwind uwtable
define internal noundef i32 @_ZN5boost10filesystem6detail12_GLOBAL__N_112invoke_statxEiPKcijP5statx(i32 noundef %0, ptr noundef %1, i32 noundef %2, i32 noundef %3, ptr noundef %4) #6 {
  %6 = alloca i32, align 4
  %7 = alloca ptr, align 8
  %8 = alloca i32, align 4
  %9 = alloca i32, align 4
  %10 = alloca ptr, align 8
  store i32 %0, ptr %6, align 4, !tbaa !7
  store ptr %1, ptr %7, align 8, !tbaa !3
  store i32 %2, ptr %8, align 4, !tbaa !7
  store i32 %3, ptr %9, align 4, !tbaa !7
  store ptr %4, ptr %10, align 8, !tbaa !3
  %11 = load i32, ptr %6, align 4, !tbaa !7
  %12 = load ptr, ptr %7, align 8, !tbaa !3
  %13 = load i32, ptr %8, align 4, !tbaa !7
  %14 = load i32, ptr %9, align 4, !tbaa !7
  %15 = load ptr, ptr %10, align 8, !tbaa !3
  %16 = call i32 @statx(i32 noundef %11, ptr noundef %12, i32 noundef %13, i32 noundef %14, ptr noundef %15) #14
  ret i32 %16
}

; Function Attrs: mustprogress nounwind uwtable
define linkonce_odr hidden noundef ptr @_ZNK5boost10filesystem4path5c_strEv(ptr noundef nonnull align 8 dereferenceable(32) %0) #2 comdat align 2 {
  %2 = alloca ptr, align 8
  store ptr %0, ptr %2, align 8, !tbaa !3
  %3 = load ptr, ptr %2, align 8
  %4 = getelementptr inbounds nuw %"class.boost::filesystem::path", ptr %3, i32 0, i32 0
  %5 = call noundef ptr @_ZNKSt7__cxx1112basic_stringIcSt11char_traitsIcESaIcEE5c_strEv(ptr noundef nonnull align 8 dereferenceable(32) %4) #14
  ret ptr %5
}

; Function Attrs: mustprogress nounwind uwtable
define linkonce_odr hidden void @_ZN5boost6system10error_code5clearEv(ptr noundef nonnull align 8 dereferenceable(24) %0) #2 comdat align 2 {
  %2 = alloca ptr, align 8
  %3 = alloca %"class.boost::system::error_code", align 8
  store ptr %0, ptr %2, align 8, !tbaa !3
  %4 = load ptr, ptr %2, align 8
  call void @llvm.lifetime.start.p0(i64 24, ptr %3) #14
  call void @_ZN5boost6system10error_codeC2Ev(ptr noundef nonnull align 8 dereferenceable(24) %3) #14
  call void @llvm.memcpy.p0.p0.i64(ptr align 8 %4, ptr align 8 %3, i64 24, i1 false), !tbaa.struct !21
  call void @llvm.lifetime.end.p0(i64 24, ptr %3) #14
  ret void
}

; Function Attrs: mustprogress uwtable
define noundef zeroext i1 @_ZN5boost10filesystem6detail13equivalent_v3ERKNS0_4pathES4_PNS_6system10error_codeE(ptr noundef nonnull align 8 dereferenceable(32) %0, ptr noundef nonnull align 8 dereferenceable(32) %1, ptr noundef %2) #5 {
  %4 = alloca i1, align 1
  %5 = alloca ptr, align 8
  %6 = alloca ptr, align 8
  %7 = alloca ptr, align 8
  %8 = alloca %struct.statx, align 8
  %9 = alloca i32, align 4
  %10 = alloca i32, align 4
  %11 = alloca %struct.statx, align 8
  %12 = alloca i32, align 4
  %13 = alloca i32, align 4
  store ptr %0, ptr %5, align 8, !tbaa !3
  store ptr %1, ptr %6, align 8, !tbaa !3
  store ptr %2, ptr %7, align 8, !tbaa !3
  %14 = load ptr, ptr %7, align 8, !tbaa !3
  %15 = icmp ne ptr %14, null
  br i1 %15, label %16, label %18

16:                                               ; preds = %3
  %17 = load ptr, ptr %7, align 8, !tbaa !3
  call void @_ZN5boost6system10error_code5clearEv(ptr noundef nonnull align 8 dereferenceable(24) %17) #14
  br label %18

18:                                               ; preds = %16, %3
  call void @llvm.lifetime.start.p0(i64 256, ptr %8) #14
  call void @llvm.lifetime.start.p0(i64 4, ptr %9) #14
  %19 = load ptr, ptr %6, align 8, !tbaa !3
  %20 = call noundef ptr @_ZNK5boost10filesystem4path5c_strEv(ptr noundef nonnull align 8 dereferenceable(32) %19) #14
  %21 = call noundef i32 @_ZN5boost10filesystem6detail12_GLOBAL__N_112invoke_statxEiPKcijP5statx(i32 noundef -100, ptr noundef %20, i32 noundef 2048, i32 noundef 256, ptr noundef %8)
  store i32 %21, ptr %9, align 4, !tbaa !7
  %22 = load i32, ptr %9, align 4, !tbaa !7
  %23 = icmp eq i32 %22, 0
  %24 = zext i1 %23 to i64
  %25 = call i64 @llvm.expect.i64(i64 %24, i64 1)
  %26 = icmp ne i64 %25, 0
  br i1 %26, label %27, label %41

27:                                               ; preds = %18
  %28 = getelementptr inbounds nuw %struct.statx, ptr %8, i32 0, i32 0
  %29 = load i32, ptr %28, align 8, !tbaa !16
  %30 = and i32 %29, 256
  %31 = icmp ne i32 %30, 256
  %32 = zext i1 %31 to i64
  %33 = call i64 @llvm.expect.i64(i64 %32, i64 0)
  %34 = icmp ne i64 %33, 0
  br i1 %34, label %35, label %40

35:                                               ; preds = %27
  br label %36

36:                                               ; preds = %87, %35
  %37 = load ptr, ptr %5, align 8, !tbaa !3
  %38 = load ptr, ptr %6, align 8, !tbaa !3
  %39 = load ptr, ptr %7, align 8, !tbaa !3
  call void @_ZN5boost10filesystem10emit_errorEiRKNS0_4pathES3_PNS_6system10error_codeEPKc(i32 noundef 38, ptr noundef nonnull align 8 dereferenceable(32) %37, ptr noundef nonnull align 8 dereferenceable(32) %38, ptr noundef %39, ptr noundef @.str.12)
  store i1 false, ptr %4, align 1
  store i32 1, ptr %10, align 4
  br label %89

40:                                               ; preds = %27
  br label %41

41:                                               ; preds = %40, %18
  call void @llvm.lifetime.start.p0(i64 256, ptr %11) #14
  call void @llvm.lifetime.start.p0(i64 4, ptr %12) #14
  %42 = load ptr, ptr %5, align 8, !tbaa !3
  %43 = call noundef ptr @_ZNK5boost10filesystem4path5c_strEv(ptr noundef nonnull align 8 dereferenceable(32) %42) #14
  %44 = call noundef i32 @_ZN5boost10filesystem6detail12_GLOBAL__N_112invoke_statxEiPKcijP5statx(i32 noundef -100, ptr noundef %43, i32 noundef 2048, i32 noundef 256, ptr noundef %11)
  store i32 %44, ptr %12, align 4, !tbaa !7
  %45 = load i32, ptr %12, align 4, !tbaa !7
  %46 = icmp eq i32 %45, 0
  %47 = zext i1 %46 to i64
  %48 = call i64 @llvm.expect.i64(i64 %47, i64 1)
  %49 = icmp ne i64 %48, 0
  br i1 %49, label %50, label %60

50:                                               ; preds = %41
  %51 = getelementptr inbounds nuw %struct.statx, ptr %11, i32 0, i32 0
  %52 = load i32, ptr %51, align 8, !tbaa !16
  %53 = and i32 %52, 256
  %54 = icmp ne i32 %53, 256
  %55 = zext i1 %54 to i64
  %56 = call i64 @llvm.expect.i64(i64 %55, i64 0)
  %57 = icmp ne i64 %56, 0
  br i1 %57, label %58, label %59

58:                                               ; preds = %50
  store i32 2, ptr %10, align 4
  br label %87

59:                                               ; preds = %50
  br label %60

60:                                               ; preds = %59, %41
  %61 = load i32, ptr %12, align 4, !tbaa !7
  %62 = icmp ne i32 %61, 0
  br i1 %62, label %66, label %63

63:                                               ; preds = %60
  %64 = load i32, ptr %9, align 4, !tbaa !7
  %65 = icmp ne i32 %64, 0
  br label %66

66:                                               ; preds = %63, %60
  %67 = phi i1 [ true, %60 ], [ %65, %63 ]
  %68 = zext i1 %67 to i64
  %69 = call i64 @llvm.expect.i64(i64 %68, i64 0)
  %70 = icmp ne i64 %69, 0
  br i1 %70, label %71, label %85

71:                                               ; preds = %66
  %72 = load i32, ptr %12, align 4, !tbaa !7
  %73 = icmp ne i32 %72, 0
  br i1 %73, label %74, label %84

74:                                               ; preds = %71
  %75 = load i32, ptr %9, align 4, !tbaa !7
  %76 = icmp ne i32 %75, 0
  br i1 %76, label %77, label %84

77:                                               ; preds = %74
  call void @llvm.lifetime.start.p0(i64 4, ptr %13) #14
  %78 = call ptr @__errno_location() #22
  %79 = load i32, ptr %78, align 4, !tbaa !7
  store i32 %79, ptr %13, align 4, !tbaa !7
  %80 = load i32, ptr %13, align 4, !tbaa !7
  %81 = load ptr, ptr %5, align 8, !tbaa !3
  %82 = load ptr, ptr %6, align 8, !tbaa !3
  %83 = load ptr, ptr %7, align 8, !tbaa !3
  call void @_ZN5boost10filesystem10emit_errorEiRKNS0_4pathES3_PNS_6system10error_codeEPKc(i32 noundef %80, ptr noundef nonnull align 8 dereferenceable(32) %81, ptr noundef nonnull align 8 dereferenceable(32) %82, ptr noundef %83, ptr noundef @.str.12)
  call void @llvm.lifetime.end.p0(i64 4, ptr %13) #14
  br label %84

84:                                               ; preds = %77, %74, %71
  store i1 false, ptr %4, align 1
  store i32 1, ptr %10, align 4
  br label %87

85:                                               ; preds = %66
  %86 = call noundef zeroext i1 @_ZN5boost10filesystem6detail12_GLOBAL__N_115equivalent_statERK5statxS5_(ptr noundef nonnull align 8 dereferenceable(256) %11, ptr noundef nonnull align 8 dereferenceable(256) %8) #14
  store i1 %86, ptr %4, align 1
  store i32 1, ptr %10, align 4
  br label %87

87:                                               ; preds = %85, %84, %58
  call void @llvm.lifetime.end.p0(i64 4, ptr %12) #14
  call void @llvm.lifetime.end.p0(i64 256, ptr %11) #14
  %88 = load i32, ptr %10, align 4
  switch i32 %88, label %89 [
    i32 2, label %36
  ]

89:                                               ; preds = %87, %36
  call void @llvm.lifetime.end.p0(i64 4, ptr %9) #14
  call void @llvm.lifetime.end.p0(i64 256, ptr %8) #14
  %90 = load i1, ptr %4, align 1
  ret i1 %90
}