; Function Attrs: mustprogress uwtable
define noundef zeroext i1 @_ZN5boost10filesystem6detail13equivalent_v3ERKNS0_4pathES4_PNS_6system10error_codeE(ptr noundef nonnull align 8 dereferenceable(32) %0, ptr noundef nonnull align 8 dereferenceable(32) %1, ptr noundef %2) local_unnamed_addr #5 personality ptr @__gxx_personality_v0 {
  %4 = alloca %struct.statx, align 8
  %5 = alloca %struct.statx, align 8
  %.not = icmp eq ptr %2, null
  br i1 %.not, label %7, label %6

6:                                                ; preds = %3
  tail call void @llvm.memset.p0.i64(ptr noundef nonnull align 8 dereferenceable(24) %2, i8 0, i64 24, i1 false)
  br label %7

7:                                                ; preds = %6, %3
  call void @llvm.lifetime.start.p0(i64 256, ptr nonnull %4) #27
  %8 = load ptr, ptr %1, align 8, !tbaa !13
  %9 = call noundef i32 @statx(i32 noundef -100, ptr noundef %8, i32 noundef 2048, i32 noundef 256, ptr noundef nonnull %4) #27
  %10 = icmp eq i32 %9, 0
  br i1 %10, label %11, label %15, !prof !32

11:                                               ; preds = %7
  %12 = load i32, ptr %4, align 8, !tbaa !28
  %13 = and i32 %12, 256
  %.not21.not = icmp eq i32 %13, 0
  br i1 %.not21.not, label %14, label %15, !prof !41

14:                                               ; preds = %_ZN5boost10filesystem6detail12_GLOBAL__N_115equivalent_statERK5statxS5_.exit, %11
  call void @_ZN5boost10filesystem10emit_errorEiRKNS0_4pathES3_PNS_6system10error_codeEPKc(i32 noundef 38, ptr noundef nonnull align 8 dereferenceable(32) %0, ptr noundef nonnull align 8 dereferenceable(32) %1, ptr noundef %2, ptr noundef nonnull @.str.12)
  br label %48

15:                                               ; preds = %11, %7
  call void @llvm.lifetime.start.p0(i64 256, ptr nonnull %5) #27
  %16 = load ptr, ptr %0, align 8, !tbaa !13
  %17 = call noundef i32 @statx(i32 noundef -100, ptr noundef %16, i32 noundef 2048, i32 noundef 256, ptr noundef nonnull %5) #27
  %18 = icmp eq i32 %17, 0
  br i1 %18, label %19, label %22, !prof !32

19:                                               ; preds = %15
  %20 = load i32, ptr %5, align 8, !tbaa !28
  %21 = and i32 %20, 256
  %.not22.not = icmp eq i32 %21, 0
  br i1 %.not22.not, label %_ZN5boost10filesystem6detail12_GLOBAL__N_115equivalent_statERK5statxS5_.exit, label %22, !prof !41

22:                                               ; preds = %19, %15
  %23 = or i32 %17, %9
  %.not23 = icmp eq i32 %23, 0
  br i1 %.not23, label %30, label %24, !prof !32

24:                                               ; preds = %22
  %25 = icmp ne i32 %9, 0
  %26 = icmp ne i32 %17, 0
  %or.cond = and i1 %25, %26
  br i1 %or.cond, label %27, label %_ZN5boost10filesystem6detail12_GLOBAL__N_115equivalent_statERK5statxS5_.exit.thread

27:                                               ; preds = %24
  %28 = tail call ptr @__errno_location() #30
  %29 = load i32, ptr %28, align 4, !tbaa !19
  call void @_ZN5boost10filesystem10emit_errorEiRKNS0_4pathES3_PNS_6system10error_codeEPKc(i32 noundef %29, ptr noundef nonnull align 8 dereferenceable(32) %0, ptr noundef nonnull align 8 dereferenceable(32) %1, ptr noundef %2, ptr noundef nonnull @.str.12)
  br label %_ZN5boost10filesystem6detail12_GLOBAL__N_115equivalent_statERK5statxS5_.exit.thread

30:                                               ; preds = %22
  %31 = getelementptr inbounds nuw i8, ptr %5, i64 136
  %32 = load i32, ptr %31, align 8, !tbaa !127
  %33 = getelementptr inbounds nuw i8, ptr %4, i64 136
  %34 = load i32, ptr %33, align 8, !tbaa !127
  %35 = icmp eq i32 %32, %34
  br i1 %35, label %36, label %_ZN5boost10filesystem6detail12_GLOBAL__N_115equivalent_statERK5statxS5_.exit.thread

36:                                               ; preds = %30
  %37 = getelementptr inbounds nuw i8, ptr %5, i64 140
  %38 = load i32, ptr %37, align 4, !tbaa !128
  %39 = getelementptr inbounds nuw i8, ptr %4, i64 140
  %40 = load i32, ptr %39, align 4, !tbaa !128
  %41 = icmp eq i32 %38, %40
  br i1 %41, label %42, label %_ZN5boost10filesystem6detail12_GLOBAL__N_115equivalent_statERK5statxS5_.exit.thread

42:                                               ; preds = %36
  %43 = getelementptr inbounds nuw i8, ptr %5, i64 32
  %44 = load i64, ptr %43, align 8, !tbaa !129
  %45 = getelementptr inbounds nuw i8, ptr %4, i64 32
  %46 = load i64, ptr %45, align 8, !tbaa !129
  %47 = icmp eq i64 %44, %46
  br label %_ZN5boost10filesystem6detail12_GLOBAL__N_115equivalent_statERK5statxS5_.exit.thread

_ZN5boost10filesystem6detail12_GLOBAL__N_115equivalent_statERK5statxS5_.exit.thread: ; preds = %27, %24, %30, %36, %42
  %.1.ph = phi i1 [ %47, %42 ], [ false, %30 ], [ false, %36 ], [ false, %24 ], [ false, %27 ]
  call void @llvm.lifetime.end.p0(i64 256, ptr nonnull %5) #27
  br label %48

_ZN5boost10filesystem6detail12_GLOBAL__N_115equivalent_statERK5statxS5_.exit: ; preds = %19
  call void @llvm.lifetime.end.p0(i64 256, ptr nonnull %5) #27
  br label %14

48:                                               ; preds = %_ZN5boost10filesystem6detail12_GLOBAL__N_115equivalent_statERK5statxS5_.exit.thread, %14
  %.0 = phi i1 [ false, %14 ], [ %.1.ph, %_ZN5boost10filesystem6detail12_GLOBAL__N_115equivalent_statERK5statxS5_.exit.thread ]
  call void @llvm.lifetime.end.p0(i64 256, ptr nonnull %4) #27
  ret i1 %.0
}